target datalayout = "e-m:e-p270:32:32-p271:32:32-p272:64:64-i64:64-i128:128-f80:128-n8:16:32:64-S128"
target triple = "x86_64-pc-linux-gnu"

%class.QString = type { %struct.QArrayDataPointer }
%struct.QArrayDataPointer = type { ptr, ptr, i64 }
%class.ProtocolPreferencesMenu = type { %class.QMenu, %class.QString, ptr, ptr }
%class.QMenu = type { %class.QWidget }
%class.QWidget = type { %class.QObject, %class.QPaintDevice.base, ptr }
%class.QObject = type { ptr, %class.QScopedPointer }
%class.QScopedPointer = type { ptr }
%class.QPaintDevice.base = type <{ ptr, i16 }>
%struct.pref_module = type { ptr, ptr, ptr, ptr, ptr, ptr, ptr, ptr, i32, i32, i8, i8, i32 }
%class.BoolPreferenceAction = type { %class.QAction, ptr }
%class.QAction = type { %class.QObject }

@mainApp = external global ptr, align 8

; Function Attrs: mustprogress nounwind null_pointer_is_valid sspstrong uwtable
define linkonce_odr noundef ptr @_ZN20BoolPreferenceAction7getPrefEv(ptr noundef align 8 dereferenceable_or_null(24) %0) #7 comdat align 2 {
  %2 = alloca ptr, align 8
  store ptr %0, ptr %2, align 8
  %3 = load ptr, ptr %2, align 8
  %4 = getelementptr inbounds nuw %class.BoolPreferenceAction, ptr %3, i32 0, i32 1
  %5 = load ptr, ptr %4, align 8
  ret ptr %5
}

; Function Attrs: mustprogress null_pointer_is_valid sspstrong uwtable
define linkonce_odr noundef i32 @_ZN20BoolPreferenceAction12setBoolValueEv(ptr noundef align 8 dereferenceable_or_null(24) %0) #0 comdat align 2 {
  %2 = alloca ptr, align 8
  store ptr %0, ptr %2, align 8
  %3 = load ptr, ptr %2, align 8
  %4 = getelementptr inbounds nuw %class.BoolPreferenceAction, ptr %3, i32 0, i32 1
  %5 = load ptr, ptr %4, align 8
  %6 = call noundef zeroext i1 @_ZNK7QAction9isCheckedEv(ptr noundef align 8 dereferenceable_or_null(16) %3)
  %7 = call i32 @prefs_set_bool_value(ptr noundef %5, i1 noundef zeroext %6, i32 noundef 2)
  ret i32 %7
}

; Function Attrs: mustprogress null_pointer_is_valid sspstrong uwtable
define void @_ZN23ProtocolPreferencesMenu23boolPreferenceTriggeredEv(ptr noundef align 8 dereferenceable_or_null(80) %0) #0 align 2 {
  %2 = alloca ptr, align 8
  %3 = alloca ptr, align 8
  %4 = alloca i32, align 4
  %5 = alloca i32, align 4
  store ptr %0, ptr %2, align 8
  %6 = load ptr, ptr %2, align 8
  call void @llvm.lifetime.start.p0(i64 8, ptr %3) #13
  %7 = call noundef ptr @_ZNK7QObject6senderEv(ptr noundef align 8 dereferenceable_or_null(16) %6)
  store ptr %7, ptr %3, align 8
  %8 = load ptr, ptr %3, align 8
  %9 = icmp ne ptr %8, null
  br i1 %9, label %11, label %10

10:                                               ; preds = %1
  store i32 1, ptr %4, align 4
  br label %39

11:                                               ; preds = %1
  %12 = load ptr, ptr %3, align 8
  %13 = call noundef i32 @_ZN20BoolPreferenceAction12setBoolValueEv(ptr noundef align 8 dereferenceable_or_null(24) %12)
  %14 = getelementptr inbounds nuw %class.ProtocolPreferencesMenu, ptr %6, i32 0, i32 2
  %15 = load ptr, ptr %14, align 8
  %16 = getelementptr inbounds nuw %struct.pref_module, ptr %15, i32 0, i32 9
  %17 = load i32, ptr %16, align 4
  %18 = or i32 %17, %13
  store i32 %18, ptr %16, align 4
  call void @llvm.lifetime.start.p0(i64 4, ptr %5) #13
  %19 = getelementptr inbounds nuw %class.ProtocolPreferencesMenu, ptr %6, i32 0, i32 2
  %20 = load ptr, ptr %19, align 8
  %21 = getelementptr inbounds nuw %struct.pref_module, ptr %20, i32 0, i32 9
  %22 = load i32, ptr %21, align 4
  store i32 %22, ptr %5, align 4
  %23 = getelementptr inbounds nuw %class.ProtocolPreferencesMenu, ptr %6, i32 0, i32 2
  %24 = load ptr, ptr %23, align 8
  call void @prefs_apply(ptr noundef %24)
  call void @prefs_main_write()
  %25 = getelementptr inbounds nuw %class.ProtocolPreferencesMenu, ptr %6, i32 0, i32 2
  %26 = load ptr, ptr %25, align 8
  %27 = getelementptr inbounds nuw %struct.pref_module, ptr %26, i32 0, i32 0
  %28 = load ptr, ptr %27, align 8
  %29 = load ptr, ptr %3, align 8
  %30 = call noundef ptr @_ZN20BoolPreferenceAction7getPrefEv(ptr noundef align 8 dereferenceable_or_null(24) %29)
  %31 = call ptr @prefs_get_name(ptr noundef %30)
  call void @commandline_options_drop(ptr noundef %28, ptr noundef %31)
  %32 = load i32, ptr %5, align 4
  %33 = and i32 %32, 8
  %34 = icmp ne i32 %33, 0
  br i1 %34, label %35, label %37

35:                                               ; preds = %11
  %36 = load ptr, ptr @mainApp, align 8
  call void @_ZN15MainApplication13emitAppSignalENS_9AppSignalE(ptr noundef align 8 dereferenceable_or_null(216) %36, i32 noundef 4)
  br label %37

37:                                               ; preds = %35, %11
  %38 = load ptr, ptr @mainApp, align 8
  call void @_ZN15MainApplication13emitAppSignalENS_9AppSignalE(ptr noundef align 8 dereferenceable_or_null(216) %38, i32 noundef 8)
  call void @llvm.lifetime.end.p0(i64 4, ptr %5) #13
  store i32 0, ptr %4, align 4
  br label %39

39:                                               ; preds = %37, %10
  call void @llvm.lifetime.end.p0(i64 8, ptr %3) #13
  %40 = load i32, ptr %4, align 4
  switch i32 %40, label %42 [
    i32 0, label %41
    i32 1, label %41
  ]

41:                                               ; preds = %39, %39
  ret void

42:                                               ; preds = %39
  unreachable
}