; Function Attrs: mustprogress null_pointer_is_valid sspstrong uwtable
define void @_ZN23ProtocolPreferencesMenu23boolPreferenceTriggeredEv(ptr noundef align 8 dereferenceable_or_null(80) %0) #0 align 2 {
  %2 = tail call noundef ptr @_ZNK7QObject6senderEv(ptr noundef align 8 dereferenceable_or_null(16) %0)
  %.not = icmp eq ptr %2, null
  br i1 %.not, label %25, label %3

3:                                                ; preds = %1
  %4 = getelementptr inbounds nuw i8, ptr %2, i64 16
  %5 = load ptr, ptr %4, align 8
  %6 = tail call noundef zeroext i1 @_ZNK7QAction9isCheckedEv(ptr noundef nonnull align 8 dereferenceable_or_null(24) %2)
  %7 = tail call noundef i32 @prefs_set_bool_value(ptr noundef %5, i1 noundef zeroext %6, i32 noundef 2)
  %8 = getelementptr inbounds nuw i8, ptr %0, i64 64
  %9 = load ptr, ptr %8, align 8
  %10 = getelementptr inbounds nuw i8, ptr %9, i64 68
  %11 = load i32, ptr %10, align 4
  %12 = or i32 %11, %7
  store i32 %12, ptr %10, align 4
  %13 = load ptr, ptr %8, align 8
  %14 = getelementptr inbounds nuw i8, ptr %13, i64 68
  %15 = load i32, ptr %14, align 4
  tail call void @prefs_apply(ptr noundef %13)
  tail call void @prefs_main_write()
  %16 = load ptr, ptr %8, align 8
  %17 = load ptr, ptr %16, align 8
  %18 = load ptr, ptr %4, align 8
  %19 = tail call ptr @prefs_get_name(ptr noundef %18)
  tail call void @commandline_options_drop(ptr noundef %17, ptr noundef %19)
  %20 = and i32 %15, 8
  %.not4 = icmp eq i32 %20, 0
  br i1 %.not4, label %23, label %21

21:                                               ; preds = %3
  %22 = load ptr, ptr @mainApp, align 8
  tail call void @_ZN15MainApplication13emitAppSignalENS_9AppSignalE(ptr noundef align 8 dereferenceable_or_null(216) %22, i32 noundef 4)
  br label %23

23:                                               ; preds = %21, %3
  %24 = load ptr, ptr @mainApp, align 8
  tail call void @_ZN15MainApplication13emitAppSignalENS_9AppSignalE(ptr noundef align 8 dereferenceable_or_null(216) %24, i32 noundef 8)
  br label %25

25:                                               ; preds = %1, %23
  ret void
}